target datalayout = "e-m:e-p270:32:32-p271:32:32-p272:64:64-i64:64-i128:128-f80:128-n8:16:32:64-S128"
target triple = "x86_64-pc-linux-gnu"

%struct.mi_stats_s = type { %struct.mi_stat_count_s, %struct.mi_stat_count_s, %struct.mi_stat_count_s, %struct.mi_stat_count_s, %struct.mi_stat_count_s, %struct.mi_stat_count_s, %struct.mi_stat_count_s, %struct.mi_stat_count_s, %struct.mi_stat_count_s, %struct.mi_stat_count_s, %struct.mi_stat_count_s, %struct.mi_stat_count_s, %struct.mi_stat_count_s, %struct.mi_stat_count_s, %struct.mi_stat_counter_s, %struct.mi_stat_counter_s, %struct.mi_stat_counter_s, %struct.mi_stat_counter_s, %struct.mi_stat_counter_s, %struct.mi_stat_counter_s, %struct.mi_stat_counter_s, %struct.mi_stat_counter_s }
%struct.mi_stat_count_s = type { i64, i64, i64, i64 }
%struct.mi_stat_counter_s = type { i64, i64 }
%struct.timespec = type { i64, i64 }
%struct.rusage = type { %struct.timeval, %struct.timeval, %union.anon, %union.anon.0, %union.anon.1, %union.anon.2, %union.anon.3, %union.anon.4, %union.anon.5, %union.anon.6, %union.anon.7, %union.anon.8, %union.anon.9, %union.anon.10, %union.anon.11, %union.anon.12 }
%struct.timeval = type { i64, i64 }
%union.anon = type { i64 }
%union.anon.0 = type { i64 }
%union.anon.1 = type { i64 }
%union.anon.2 = type { i64 }
%union.anon.3 = type { i64 }
%union.anon.4 = type { i64 }
%union.anon.5 = type { i64 }
%union.anon.6 = type { i64 }
%union.anon.7 = type { i64 }
%union.anon.8 = type { i64 }
%union.anon.9 = type { i64 }
%union.anon.10 = type { i64 }
%union.anon.11 = type { i64 }
%union.anon.12 = type { i64 }

@_mi_stats_main = external global %struct.mi_stats_s, align 64
@mi_process_start = internal global i64 0, align 8
@mi_clock_diff = internal global i64 0, align 8

; Function Attrs: nounwind uwtable
define hidden i64 @_mi_clock_now() #0 {
  %1 = alloca %struct.timespec, align 8
  call void @llvm.lifetime.start.p0(i64 16, ptr %1) #7
  %2 = call i32 @clock_gettime(i32 noundef 1, ptr noundef %1) #7
  %3 = getelementptr inbounds nuw %struct.timespec, ptr %1, i32 0, i32 0
  %4 = load i64, ptr %3, align 8, !tbaa !40
  %5 = mul nsw i64 %4, 1000
  %6 = getelementptr inbounds nuw %struct.timespec, ptr %1, i32 0, i32 1
  %7 = load i64, ptr %6, align 8, !tbaa !42
  %8 = sdiv i64 %7, 1000000
  %9 = add nsw i64 %5, %8
  call void @llvm.lifetime.end.p0(i64 16, ptr %1) #7
  ret i64 %9
}

; Function Attrs: nounwind uwtable
define internal i64 @timeval_secs(ptr noundef %0) #0 {
  %2 = alloca ptr, align 8
  store ptr %0, ptr %2, align 8, !tbaa !54
  %3 = load ptr, ptr %2, align 8, !tbaa !54
  %4 = getelementptr inbounds nuw %struct.timeval, ptr %3, i32 0, i32 0
  %5 = load i64, ptr %4, align 8, !tbaa !56
  %6 = mul nsw i64 %5, 1000
  %7 = load ptr, ptr %2, align 8, !tbaa !54
  %8 = getelementptr inbounds nuw %struct.timeval, ptr %7, i32 0, i32 1
  %9 = load i64, ptr %8, align 8, !tbaa !58
  %10 = sdiv i64 %9, 1000
  %11 = add nsw i64 %6, %10
  ret i64 %11
}

; Function Attrs: nounwind uwtable
define hidden i64 @_mi_clock_end(i64 noundef %0) #0 {
  %2 = alloca i64, align 8
  %3 = alloca i64, align 8
  store i64 %0, ptr %2, align 8, !tbaa !8
  call void @llvm.lifetime.start.p0(i64 8, ptr %3) #7
  %4 = call i64 @_mi_clock_now()
  store i64 %4, ptr %3, align 8, !tbaa !8
  %5 = load i64, ptr %3, align 8, !tbaa !8
  %6 = load i64, ptr %2, align 8, !tbaa !8
  %7 = sub nsw i64 %5, %6
  %8 = load i64, ptr @mi_clock_diff, align 8, !tbaa !8
  %9 = sub nsw i64 %7, %8
  call void @llvm.lifetime.end.p0(i64 8, ptr %3) #7
  ret i64 %9
}

; Function Attrs: nounwind uwtable
define internal void @mi_stat_process_info(ptr noundef %0, ptr noundef %1, ptr noundef %2, ptr noundef %3, ptr noundef %4, ptr noundef %5, ptr noundef %6, ptr noundef %7) #0 {
  %9 = alloca ptr, align 8
  %10 = alloca ptr, align 8
  %11 = alloca ptr, align 8
  %12 = alloca ptr, align 8
  %13 = alloca ptr, align 8
  %14 = alloca ptr, align 8
  %15 = alloca ptr, align 8
  %16 = alloca ptr, align 8
  %17 = alloca %struct.rusage, align 8
  %18 = alloca i64, align 8
  %19 = alloca i64, align 8
  store ptr %0, ptr %9, align 8, !tbaa !14
  store ptr %1, ptr %10, align 8, !tbaa !14
  store ptr %2, ptr %11, align 8, !tbaa !14
  store ptr %3, ptr %12, align 8, !tbaa !14
  store ptr %4, ptr %13, align 8, !tbaa !14
  store ptr %5, ptr %14, align 8, !tbaa !14
  store ptr %6, ptr %15, align 8, !tbaa !14
  store ptr %7, ptr %16, align 8, !tbaa !14
  %20 = load i64, ptr @mi_process_start, align 8, !tbaa !8
  %21 = call i64 @_mi_clock_end(i64 noundef %20)
  %22 = load ptr, ptr %9, align 8, !tbaa !14
  store i64 %21, ptr %22, align 8, !tbaa !8
  call void @llvm.lifetime.start.p0(i64 144, ptr %17) #7
  %23 = call i32 @getrusage(i32 noundef 0, ptr noundef %17) #7
  %24 = getelementptr inbounds nuw %struct.rusage, ptr %17, i32 0, i32 0
  %25 = call i64 @timeval_secs(ptr noundef %24)
  %26 = load ptr, ptr %10, align 8, !tbaa !14
  store i64 %25, ptr %26, align 8, !tbaa !8
  %27 = getelementptr inbounds nuw %struct.rusage, ptr %17, i32 0, i32 1
  %28 = call i64 @timeval_secs(ptr noundef %27)
  %29 = load ptr, ptr %11, align 8, !tbaa !14
  store i64 %28, ptr %29, align 8, !tbaa !8
  %30 = getelementptr inbounds nuw %struct.rusage, ptr %17, i32 0, i32 7
  %31 = load i64, ptr %30, align 8, !tbaa !43
  %32 = load ptr, ptr %16, align 8, !tbaa !14
  store i64 %31, ptr %32, align 8, !tbaa !8
  %33 = load atomic i64, ptr getelementptr inbounds nuw (%struct.mi_stat_count_s, ptr getelementptr inbounds nuw (%struct.mi_stats_s, ptr @_mi_stats_main, i32 0, i32 3), i32 0, i32 2) monotonic, align 16
  store i64 %33, ptr %18, align 8
  %34 = load i64, ptr %18, align 8, !tbaa !8
  %35 = load ptr, ptr %15, align 8, !tbaa !14
  store i64 %34, ptr %35, align 8, !tbaa !8
  %36 = load atomic i64, ptr getelementptr inbounds nuw (%struct.mi_stat_count_s, ptr getelementptr inbounds nuw (%struct.mi_stats_s, ptr @_mi_stats_main, i32 0, i32 3), i32 0, i32 3) monotonic, align 8
  store i64 %36, ptr %19, align 8
  %37 = load i64, ptr %19, align 8, !tbaa !8
  %38 = load ptr, ptr %14, align 8, !tbaa !14
  store i64 %37, ptr %38, align 8, !tbaa !8
  %39 = load ptr, ptr %14, align 8, !tbaa !14
  %40 = load i64, ptr %39, align 8, !tbaa !8
  %41 = load ptr, ptr %12, align 8, !tbaa !14
  store i64 %40, ptr %41, align 8, !tbaa !8
  %42 = getelementptr inbounds nuw %struct.rusage, ptr %17, i32 0, i32 2
  %43 = load i64, ptr %42, align 8, !tbaa !43
  %44 = mul nsw i64 %43, 1024
  %45 = load ptr, ptr %13, align 8, !tbaa !14
  store i64 %44, ptr %45, align 8, !tbaa !8
  call void @llvm.lifetime.end.p0(i64 144, ptr %17) #7
  ret void
}

; Function Attrs: nounwind uwtable
define hidden void @mi_process_info(ptr noundef %0, ptr noundef %1, ptr noundef %2, ptr noundef %3, ptr noundef %4, ptr noundef %5, ptr noundef %6, ptr noundef %7) #0 {
  %9 = alloca ptr, align 8
  %10 = alloca ptr, align 8
  %11 = alloca ptr, align 8
  %12 = alloca ptr, align 8
  %13 = alloca ptr, align 8
  %14 = alloca ptr, align 8
  %15 = alloca ptr, align 8
  %16 = alloca ptr, align 8
  %17 = alloca i64, align 8
  %18 = alloca i64, align 8
  %19 = alloca i64, align 8
  %20 = alloca i64, align 8
  %21 = alloca i64, align 8
  %22 = alloca i64, align 8
  %23 = alloca i64, align 8
  %24 = alloca i64, align 8
  store ptr %0, ptr %9, align 8, !tbaa !14
  store ptr %1, ptr %10, align 8, !tbaa !14
  store ptr %2, ptr %11, align 8, !tbaa !14
  store ptr %3, ptr %12, align 8, !tbaa !14
  store ptr %4, ptr %13, align 8, !tbaa !14
  store ptr %5, ptr %14, align 8, !tbaa !14
  store ptr %6, ptr %15, align 8, !tbaa !14
  store ptr %7, ptr %16, align 8, !tbaa !14
  call void @llvm.lifetime.start.p0(i64 8, ptr %17) #7
  store i64 0, ptr %17, align 8, !tbaa !8
  call void @llvm.lifetime.start.p0(i64 8, ptr %18) #7
  store i64 0, ptr %18, align 8, !tbaa !8
  call void @llvm.lifetime.start.p0(i64 8, ptr %19) #7
  store i64 0, ptr %19, align 8, !tbaa !8
  call void @llvm.lifetime.start.p0(i64 8, ptr %20) #7
  store i64 0, ptr %20, align 8, !tbaa !8
  call void @llvm.lifetime.start.p0(i64 8, ptr %21) #7
  store i64 0, ptr %21, align 8, !tbaa !8
  call void @llvm.lifetime.start.p0(i64 8, ptr %22) #7
  store i64 0, ptr %22, align 8, !tbaa !8
  call void @llvm.lifetime.start.p0(i64 8, ptr %23) #7
  store i64 0, ptr %23, align 8, !tbaa !8
  call void @llvm.lifetime.start.p0(i64 8, ptr %24) #7
  store i64 0, ptr %24, align 8, !tbaa !8
  call void @mi_stat_process_info(ptr noundef %17, ptr noundef %18, ptr noundef %19, ptr noundef %20, ptr noundef %21, ptr noundef %22, ptr noundef %23, ptr noundef %24)
  %25 = load ptr, ptr %9, align 8, !tbaa !14
  %26 = icmp ne ptr %25, null
  br i1 %26, label %27, label %42

27:                                               ; preds = %8
  %28 = load i64, ptr %17, align 8, !tbaa !8
  %29 = icmp slt i64 %28, 0
  br i1 %29, label %30, label %31

30:                                               ; preds = %27
  br label %39

31:                                               ; preds = %27
  %32 = load i64, ptr %17, align 8, !tbaa !8
  %33 = icmp slt i64 %32, 9223372036854775807
  br i1 %33, label %34, label %36

34:                                               ; preds = %31
  %35 = load i64, ptr %17, align 8, !tbaa !8
  br label %37

36:                                               ; preds = %31
  br label %37

37:                                               ; preds = %36, %34
  %38 = phi i64 [ %35, %34 ], [ 9223372036854775807, %36 ]
  br label %39

39:                                               ; preds = %37, %30
  %40 = phi i64 [ 0, %30 ], [ %38, %37 ]
  %41 = load ptr, ptr %9, align 8, !tbaa !14
  store i64 %40, ptr %41, align 8, !tbaa !8
  br label %42

42:                                               ; preds = %39, %8
  %43 = load ptr, ptr %10, align 8, !tbaa !14
  %44 = icmp ne ptr %43, null
  br i1 %44, label %45, label %60

45:                                               ; preds = %42
  %46 = load i64, ptr %18, align 8, !tbaa !8
  %47 = icmp slt i64 %46, 0
  br i1 %47, label %48, label %49

48:                                               ; preds = %45
  br label %57

49:                                               ; preds = %45
  %50 = load i64, ptr %18, align 8, !tbaa !8
  %51 = icmp slt i64 %50, 9223372036854775807
  br i1 %51, label %52, label %54

52:                                               ; preds = %49
  %53 = load i64, ptr %18, align 8, !tbaa !8
  br label %55

54:                                               ; preds = %49
  br label %55

55:                                               ; preds = %54, %52
  %56 = phi i64 [ %53, %52 ], [ 9223372036854775807, %54 ]
  br label %57

57:                                               ; preds = %55, %48
  %58 = phi i64 [ 0, %48 ], [ %56, %55 ]
  %59 = load ptr, ptr %10, align 8, !tbaa !14
  store i64 %58, ptr %59, align 8, !tbaa !8
  br label %60

60:                                               ; preds = %57, %42
  %61 = load ptr, ptr %11, align 8, !tbaa !14
  %62 = icmp ne ptr %61, null
  br i1 %62, label %63, label %78

63:                                               ; preds = %60
  %64 = load i64, ptr %19, align 8, !tbaa !8
  %65 = icmp slt i64 %64, 0
  br i1 %65, label %66, label %67

66:                                               ; preds = %63
  br label %75

67:                                               ; preds = %63
  %68 = load i64, ptr %19, align 8, !tbaa !8
  %69 = icmp slt i64 %68, 9223372036854775807
  br i1 %69, label %70, label %72

70:                                               ; preds = %67
  %71 = load i64, ptr %19, align 8, !tbaa !8
  br label %73

72:                                               ; preds = %67
  br label %73

73:                                               ; preds = %72, %70
  %74 = phi i64 [ %71, %70 ], [ 9223372036854775807, %72 ]
  br label %75

75:                                               ; preds = %73, %66
  %76 = phi i64 [ 0, %66 ], [ %74, %73 ]
  %77 = load ptr, ptr %11, align 8, !tbaa !14
  store i64 %76, ptr %77, align 8, !tbaa !8
  br label %78

78:                                               ; preds = %75, %60
  %79 = load ptr, ptr %12, align 8, !tbaa !14
  %80 = icmp ne ptr %79, null
  br i1 %80, label %81, label %84

81:                                               ; preds = %78
  %82 = load i64, ptr %20, align 8, !tbaa !8
  %83 = load ptr, ptr %12, align 8, !tbaa !14
  store i64 %82, ptr %83, align 8, !tbaa !8
  br label %84

84:                                               ; preds = %81, %78
  %85 = load ptr, ptr %13, align 8, !tbaa !14
  %86 = icmp ne ptr %85, null
  br i1 %86, label %87, label %90

87:                                               ; preds = %84
  %88 = load i64, ptr %21, align 8, !tbaa !8
  %89 = load ptr, ptr %13, align 8, !tbaa !14
  store i64 %88, ptr %89, align 8, !tbaa !8
  br label %90

90:                                               ; preds = %87, %84
  %91 = load ptr, ptr %14, align 8, !tbaa !14
  %92 = icmp ne ptr %91, null
  br i1 %92, label %93, label %96

93:                                               ; preds = %90
  %94 = load i64, ptr %22, align 8, !tbaa !8
  %95 = load ptr, ptr %14, align 8, !tbaa !14
  store i64 %94, ptr %95, align 8, !tbaa !8
  br label %96

96:                                               ; preds = %93, %90
  %97 = load ptr, ptr %15, align 8, !tbaa !14
  %98 = icmp ne ptr %97, null
  br i1 %98, label %99, label %102

99:                                               ; preds = %96
  %100 = load i64, ptr %23, align 8, !tbaa !8
  %101 = load ptr, ptr %15, align 8, !tbaa !14
  store i64 %100, ptr %101, align 8, !tbaa !8
  br label %102

102:                                              ; preds = %99, %96
  %103 = load ptr, ptr %16, align 8, !tbaa !14
  %104 = icmp ne ptr %103, null
  br i1 %104, label %105, label %108

105:                                              ; preds = %102
  %106 = load i64, ptr %24, align 8, !tbaa !8
  %107 = load ptr, ptr %16, align 8, !tbaa !14
  store i64 %106, ptr %107, align 8, !tbaa !8
  br label %108

108:                                              ; preds = %105, %102
  call void @llvm.lifetime.end.p0(i64 8, ptr %24) #7
  call void @llvm.lifetime.end.p0(i64 8, ptr %23) #7
  call void @llvm.lifetime.end.p0(i64 8, ptr %22) #7
  call void @llvm.lifetime.end.p0(i64 8, ptr %21) #7
  call void @llvm.lifetime.end.p0(i64 8, ptr %20) #7
  call void @llvm.lifetime.end.p0(i64 8, ptr %19) #7
  call void @llvm.lifetime.end.p0(i64 8, ptr %18) #7
  call void @llvm.lifetime.end.p0(i64 8, ptr %17) #7
  ret void
}