; Function Attrs: nounwind uwtable
define hidden void @mi_process_info(ptr noundef writeonly captures(address_is_null) %0, ptr noundef writeonly captures(address_is_null) %1, ptr noundef writeonly captures(address_is_null) %2, ptr noundef writeonly captures(address_is_null) %3, ptr noundef writeonly captures(address_is_null) %4, ptr noundef writeonly captures(address_is_null) %5, ptr noundef writeonly captures(address_is_null) %6, ptr noundef writeonly captures(address_is_null) %7) local_unnamed_addr #2 {
  %9 = alloca %struct.timespec, align 8
  %10 = alloca %struct.rusage, align 8
  %11 = load i64, ptr @mi_process_start, align 8, !tbaa !24
  call void @llvm.lifetime.start.p0(i64 16, ptr nonnull %9) #10
  %12 = call i32 @clock_gettime(i32 noundef 1, ptr noundef nonnull %9) #10
  %13 = load i64, ptr %9, align 8, !tbaa !25
  %14 = getelementptr inbounds nuw i8, ptr %9, i64 8
  %15 = load i64, ptr %14, align 8, !tbaa !27
  call void @llvm.lifetime.end.p0(i64 16, ptr nonnull %9) #10
  %16 = load i64, ptr @mi_clock_diff, align 8, !tbaa !24
  call void @llvm.lifetime.start.p0(i64 144, ptr nonnull %10) #10
  %17 = call i32 @getrusage(i32 noundef 0, ptr noundef nonnull %10) #10
  %.val.i = load i64, ptr %10, align 8, !tbaa !35
  %18 = getelementptr inbounds nuw i8, ptr %10, i64 8
  %.val10.i = load i64, ptr %18, align 8, !tbaa !37
  %19 = mul nsw i64 %.val.i, 1000
  %20 = sdiv i64 %.val10.i, 1000
  %21 = add nsw i64 %20, %19
  %22 = getelementptr inbounds nuw i8, ptr %10, i64 16
  %.val11.i = load i64, ptr %22, align 8, !tbaa !35
  %23 = getelementptr inbounds nuw i8, ptr %10, i64 24
  %.val12.i = load i64, ptr %23, align 8, !tbaa !37
  %24 = mul nsw i64 %.val11.i, 1000
  %25 = sdiv i64 %.val12.i, 1000
  %26 = add nsw i64 %25, %24
  %27 = getelementptr inbounds nuw i8, ptr %10, i64 72
  %28 = load i64, ptr %27, align 8, !tbaa !38
  %29 = load atomic i64, ptr getelementptr inbounds nuw (i8, ptr @_mi_stats_main, i64 112) monotonic, align 16
  %30 = load atomic i64, ptr getelementptr inbounds nuw (i8, ptr @_mi_stats_main, i64 120) monotonic, align 8
  %31 = getelementptr inbounds nuw i8, ptr %10, i64 32
  %32 = load i64, ptr %31, align 8, !tbaa !38
  %33 = shl nsw i64 %32, 10
  call void @llvm.lifetime.end.p0(i64 144, ptr nonnull %10) #10
  %.not = icmp eq ptr %0, null
  br i1 %.not, label %41, label %34

34:                                               ; preds = %8
  %35 = mul nsw i64 %13, 1000
  %36 = sdiv i64 %15, 1000000
  %37 = add i64 %35, %36
  %38 = add i64 %11, %16
  %39 = sub i64 %37, %38
  %40 = call i64 @llvm.smax.i64(i64 %39, i64 0)
  store i64 %40, ptr %0, align 8, !tbaa !24
  br label %41

41:                                               ; preds = %34, %8
  %.not23 = icmp eq ptr %1, null
  br i1 %.not23, label %44, label %42

42:                                               ; preds = %41
  %43 = call i64 @llvm.smax.i64(i64 %21, i64 0)
  store i64 %43, ptr %1, align 8, !tbaa !24
  br label %44

44:                                               ; preds = %42, %41
  %.not24 = icmp eq ptr %2, null
  br i1 %.not24, label %47, label %45

45:                                               ; preds = %44
  %46 = call i64 @llvm.smax.i64(i64 %26, i64 0)
  store i64 %46, ptr %2, align 8, !tbaa !24
  br label %47

47:                                               ; preds = %45, %44
  %.not25 = icmp eq ptr %3, null
  br i1 %.not25, label %49, label %48

48:                                               ; preds = %47
  store i64 %30, ptr %3, align 8, !tbaa !24
  br label %49

49:                                               ; preds = %48, %47
  %.not26 = icmp eq ptr %4, null
  br i1 %.not26, label %51, label %50

50:                                               ; preds = %49
  store i64 %33, ptr %4, align 8, !tbaa !24
  br label %51

51:                                               ; preds = %50, %49
  %.not27 = icmp eq ptr %5, null
  br i1 %.not27, label %53, label %52

52:                                               ; preds = %51
  store i64 %30, ptr %5, align 8, !tbaa !24
  br label %53

53:                                               ; preds = %52, %51
  %.not28 = icmp eq ptr %6, null
  br i1 %.not28, label %55, label %54

54:                                               ; preds = %53
  store i64 %29, ptr %6, align 8, !tbaa !24
  br label %55

55:                                               ; preds = %54, %53
  %.not29 = icmp eq ptr %7, null
  br i1 %.not29, label %57, label %56

56:                                               ; preds = %55
  store i64 %28, ptr %7, align 8, !tbaa !24
  br label %57

57:                                               ; preds = %56, %55
  ret void
}